(dp0
S'hom'
p1
cnumpy.core.multiarray
_reconstruct
p2
(cnumpy
ndarray
p3
(I0
tp4
S'b'
p5
tp6
Rp7
(I1
(I3
I3
tp8
cnumpy
dtype
p9
(S'f8'
p10
I0
I1
tp11
Rp12
(I3
S'<'
p13
NNNI-1
I-1
I0
tp14
bI00
S'\xf9\x9b\x18\x14rD\xac?D\xba\xdf\x8e\x1b\xf3\xf4\xbf\x1c\xa6\xcce\\+\x83@6?b\xb0\x12U\x14? \xc0\xa1L\r\x02\xbd?\xa6\x1b3\xcfb\xc7\x1b\xc00\xae\xc3\xc9H\xf9\x81>\x96U\x85\x0b=\x87`\xbf\x00\x00\x00\x00\x00\x00\xf0?'
p15
tp16
bsS'realPts'
p17
(lp18
(I384
I503
tp19
a(I384
I648
tp20
a(I640
I360
tp21
a(I640
I503
tp22
a(I640
I648
tp23
a(I896
I503
tp24
a(I896
I648
tp25
asS'calibrationPts'
p26
(lp27
(lp28
(I239
I460
tp29
a(I239
I457
tp30
a(I239
I458
tp31
a(I240
I458
tp32
a(I240
I457
tp33
a(I239
I457
tp34
a(I240
I456
tp35
a(I241
I456
tp36
a(I241
I456
tp37
a(I239
I457
tp38
a(I239
I455
tp39
a(I240
I456
tp40
a(I240
I456
tp41
a(I240
I456
tp42
a(I240
I457
tp43
a(I241
I456
tp44
a(I240
I457
tp45
a(I241
I456
tp46
a(I239
I456
tp47
a(I240
I458
tp48
a(I241
I457
tp49
a(I240
I457
tp50
a(I241
I456
tp51
a(I241
I456
tp52
a(I241
I457
tp53
a(I240
I456
tp54
a(I239
I457
tp55
a(I240
I457
tp56
a(I239
I456
tp57
a(I238
I455
tp58
a(I240
I456
tp59
a(I240
I456
tp60
a(I239
I456
tp61
a(I239
I455
tp62
a(I240
I456
tp63
aa(lp64
(I286
I465
tp65
a(I303
I468
tp66
a(I303
I467
tp67
a(I303
I467
tp68
a(I299
I462
tp69
a(I302
I465
tp70
a(I303
I466
tp71
a(I303
I466
tp72
a(I303
I463
tp73
a(I302
I464
tp74
a(I302
I465
tp75
a(I301
I465
tp76
a(I302
I467
tp77
a(I302
I466
tp78
a(I302
I466
tp79
a(I301
I465
tp80
a(I302
I465
tp81
a(I302
I465
tp82
a(I303
I466
tp83
a(I301
I466
tp84
a(I303
I466
tp85
a(I302
I464
tp86
a(I302
I464
tp87
a(I302
I468
tp88
a(I302
I465
tp89
a(I301
I466
tp90
a(I301
I466
tp91
a(I301
I466
tp92
a(I301
I465
tp93
a(I302
I466
tp94
a(I302
I465
tp95
a(I302
I465
tp96
aa(lp97
(I592
I435
tp98
a(I592
I436
tp99
a(I633
I435
tp100
a(I626
I436
tp101
a(I629
I436
tp102
a(I626
I436
tp103
a(I627
I436
tp104
a(I632
I435
tp105
a(I627
I436
tp106
a(I632
I437
tp107
a(I632
I437
tp108
a(I629
I437
tp109
a(I624
I439
tp110
a(I623
I437
tp111
a(I623
I437
tp112
a(I626
I438
tp113
a(I627
I440
tp114
a(I627
I438
tp115
a(I626
I439
tp116
a(I627
I437
tp117
a(I629
I438
tp118
a(I626
I438
tp119
a(I628
I438
tp120
a(I625
I438
tp121
a(I624
I439
tp122
a(I627
I436
tp123
a(I625
I439
tp124
a(I626
I437
tp125
a(I629
I438
tp126
a(I630
I441
tp127
a(I624
I437
tp128
a(I634
I437
tp129
a(I622
I437
tp130
a(I625
I436
tp131
a(I628
I438
tp132
a(I627
I437
tp133
a(I626
I437
tp134
a(I628
I439
tp135
a(I626
I436
tp136
a(I624
I437
tp137
aa(lp138
(I631
I452
tp139
a(I613
I452
tp140
a(I612
I451
tp141
a(I633
I451
tp142
a(I633
I451
tp143
a(I633
I452
tp144
a(I632
I452
tp145
a(I632
I452
tp146
a(I632
I452
tp147
a(I633
I452
tp148
a(I634
I450
tp149
a(I632
I453
tp150
a(I633
I453
tp151
a(I632
I452
tp152
a(I632
I452
tp153
a(I632
I452
tp154
a(I632
I454
tp155
a(I631
I452
tp156
a(I630
I453
tp157
a(I630
I452
tp158
a(I632
I451
tp159
a(I630
I453
tp160
a(I630
I453
tp161
a(I630
I452
tp162
a(I630
I452
tp163
a(I629
I452
tp164
a(I629
I454
tp165
a(I631
I452
tp166
a(I630
I454
tp167
a(I631
I452
tp168
a(I629
I453
tp169
a(I630
I454
tp170
a(I630
I453
tp171
a(I630
I453
tp172
a(I630
I452
tp173
a(I630
I453
tp174
a(I628
I452
tp175
a(I630
I453
tp176
a(I630
I454
tp177
a(I630
I454
tp178
a(I630
I453
tp179
aa(lp180
(I652
I462
tp181
a(I612
I462
tp182
a(I633
I462
tp183
a(I634
I462
tp184
a(I633
I462
tp185
a(I633
I463
tp186
a(I633
I463
tp187
a(I633
I461
tp188
a(I633
I461
tp189
a(I634
I463
tp190
a(I634
I463
tp191
a(I633
I461
tp192
a(I634
I461
tp193
a(I632
I460
tp194
a(I634
I462
tp195
a(I634
I462
tp196
a(I634
I462
tp197
a(I633
I463
tp198
a(I633
I461
tp199
a(I631
I462
tp200
a(I633
I462
tp201
a(I632
I461
tp202
a(I633
I462
tp203
a(I633
I461
tp204
a(I633
I461
tp205
a(I634
I462
tp206
a(I633
I462
tp207
a(I633
I463
tp208
a(I633
I461
tp209
a(I632
I464
tp210
a(I633
I461
tp211
a(I634
I462
tp212
a(I633
I461
tp213
a(I633
I461
tp214
a(I632
I462
tp215
a(I632
I462
tp216
a(I633
I462
tp217
aa(lp218
(I1044
I451
tp219
a(I1041
I452
tp220
a(I1041
I451
tp221
a(I1041
I451
tp222
a(I1043
I452
tp223
a(I1042
I450
tp224
a(I1041
I451
tp225
a(I1041
I451
tp226
a(I1041
I451
tp227
a(I1040
I451
tp228
a(I1040
I451
tp229
a(I1038
I451
tp230
a(I1040
I452
tp231
a(I1039
I450
tp232
a(I1041
I451
tp233
a(I1041
I453
tp234
a(I1040
I452
tp235
a(I1040
I453
tp236
a(I1040
I450
tp237
a(I1040
I452
tp238
a(I1040
I452
tp239
a(I1040
I452
tp240
a(I1040
I452
tp241
a(I1040
I452
tp242
a(I1040
I452
tp243
a(I1040
I452
tp244
a(I1040
I452
tp245
a(I1040
I451
tp246
a(I1040
I452
tp247
a(I1039
I452
tp248
a(I1039
I452
tp249
a(I1040
I452
tp250
a(I1040
I452
tp251
a(I1039
I451
tp252
a(I1040
I452
tp253
a(I1040
I452
tp254
a(I1040
I451
tp255
a(I1039
I450
tp256
a(I1039
I452
tp257
aa(lp258
(I941
I463
tp259
a(I943
I463
tp260
a(I950
I461
tp261
a(I959
I462
tp262
a(I959
I461
tp263
a(I958
I459
tp264
a(I957
I459
tp265
a(I976
I366
tp266
a(I960
I461
tp267
a(I958
I460
tp268
a(I959
I461
tp269
a(I960
I461
tp270
a(I977
I371
tp271
a(I959
I461
tp272
a(I960
I461
tp273
a(I959
I461
tp274
a(I959
I461
tp275
a(I958
I461
tp276
a(I957
I463
tp277
a(I958
I461
tp278
a(I958
I462
tp279
a(I958
I462
tp280
a(I958
I461
tp281
a(I958
I462
tp282
a(I958
I461
tp283
a(I958
I462
tp284
a(I959
I461
tp285
a(I959
I461
tp286
a(I958
I462
tp287
a(I957
I461
tp288
a(I958
I461
tp289
a(I957
I462
tp290
a(I957
I462
tp291
a(I957
I460
tp292
a(I957
I460
tp293
a(I957
I463
tp294
a(I956
I461
tp295
a(I957
I460
tp296
a(I957
I461
tp297
a(I957
I461
tp298
a(I957
I462
tp299
aa(lp300
a(lp301
asS'orp'
p302
g18
s.